; ModuleID = '38/308.c'
source_filename = "38/308.c"
target datalayout = "e-m:e-p270:32:32-p271:32:32-p272:64:64-i64:64-f80:128-n8:16:32:64-S128"
target triple = "x86_64-pc-linux-gnu"

@.str = private unnamed_addr constant [3 x i8] c"%d\00", align 1
@.str.1 = private unnamed_addr constant [4 x i8] c"%lf\00", align 1
@.str.2 = private unnamed_addr constant [7 x i8] c"%.5lf\0A\00", align 1

; Function Attrs: noinline nounwind uwtable
define dso_local i32 @main(i32 %0, i8** %1) #0 {
  %3 = alloca i32, align 4
  %4 = alloca i32, align 4
  %5 = alloca i8**, align 8
  %6 = alloca i32, align 4
  %7 = alloca i32, align 4
  %8 = alloca i32, align 4
  %9 = alloca i32, align 4
  %10 = alloca double, align 8
  %11 = alloca [100 x double], align 16
  %12 = alloca double, align 8
  %13 = alloca double, align 8
  %14 = alloca double, align 8
  %15 = alloca [100 x double], align 16
  store i32 0, i32* %3, align 4
  store i32 %0, i32* %4, align 4
  store i8** %1, i8*** %5, align 8
  %16 = call i32 (i8*, ...) @__isoc99_scanf(i8* getelementptr inbounds ([3 x i8], [3 x i8]* @.str, i64 0, i64 0), i32* %7)
  store i32 0, i32* %8, align 4
  br label %17

17:                                               ; preds = %93, %2
  %18 = load i32, i32* %8, align 4
  %19 = load i32, i32* %7, align 4
  %20 = icmp slt i32 %18, %19
  br i1 %20, label %21, label %96

21:                                               ; preds = %17
  store double 0.000000e+00, double* %12, align 8
  store double 0.000000e+00, double* %13, align 8
  store double 0.000000e+00, double* %14, align 8
  %22 = call i32 (i8*, ...) @__isoc99_scanf(i8* getelementptr inbounds ([3 x i8], [3 x i8]* @.str, i64 0, i64 0), i32* %6)
  store i32 0, i32* %9, align 4
  br label %23

23:                                               ; preds = %32, %21
  %24 = load i32, i32* %9, align 4
  %25 = load i32, i32* %6, align 4
  %26 = icmp slt i32 %24, %25
  br i1 %26, label %27, label %35

27:                                               ; preds = %23
  %28 = load i32, i32* %9, align 4
  %29 = sext i32 %28 to i64
  %30 = getelementptr inbounds [100 x double], [100 x double]* %11, i64 0, i64 %29
  %31 = call i32 (i8*, ...) @__isoc99_scanf(i8* getelementptr inbounds ([4 x i8], [4 x i8]* @.str.1, i64 0, i64 0), double* %30)
  br label %32

32:                                               ; preds = %27
  %33 = load i32, i32* %9, align 4
  %34 = add nsw i32 %33, 1
  store i32 %34, i32* %9, align 4
  br label %23

35:                                               ; preds = %23
  store i32 0, i32* %9, align 4
  br label %36

36:                                               ; preds = %47, %35
  %37 = load i32, i32* %9, align 4
  %38 = load i32, i32* %6, align 4
  %39 = icmp slt i32 %37, %38
  br i1 %39, label %40, label %50

40:                                               ; preds = %36
  %41 = load i32, i32* %9, align 4
  %42 = sext i32 %41 to i64
  %43 = getelementptr inbounds [100 x double], [100 x double]* %11, i64 0, i64 %42
  %44 = load double, double* %43, align 8
  %45 = load double, double* %12, align 8
  %46 = fadd double %45, %44
  store double %46, double* %12, align 8
  br label %47

47:                                               ; preds = %40
  %48 = load i32, i32* %9, align 4
  %49 = add nsw i32 %48, 1
  store i32 %49, i32* %9, align 4
  br label %36

50:                                               ; preds = %36
  %51 = load double, double* %12, align 8
  %52 = load i32, i32* %6, align 4
  %53 = sitofp i32 %52 to double
  %54 = fdiv double %51, %53
  store double %54, double* %14, align 8
  store i32 0, i32* %9, align 4
  br label %55

55:                                               ; preds = %82, %50
  %56 = load i32, i32* %9, align 4
  %57 = load i32, i32* %6, align 4
  %58 = icmp slt i32 %56, %57
  br i1 %58, label %59, label %85

59:                                               ; preds = %55
  %60 = load i32, i32* %9, align 4
  %61 = sext i32 %60 to i64
  %62 = getelementptr inbounds [100 x double], [100 x double]* %11, i64 0, i64 %61
  %63 = load double, double* %62, align 8
  %64 = load double, double* %14, align 8
  %65 = fsub double %63, %64
  %66 = load i32, i32* %9, align 4
  %67 = sext i32 %66 to i64
  %68 = getelementptr inbounds [100 x double], [100 x double]* %11, i64 0, i64 %67
  %69 = load double, double* %68, align 8
  %70 = load double, double* %14, align 8
  %71 = fsub double %69, %70
  %72 = fmul double %65, %71
  %73 = load i32, i32* %9, align 4
  %74 = sext i32 %73 to i64
  %75 = getelementptr inbounds [100 x double], [100 x double]* %15, i64 0, i64 %74
  store double %72, double* %75, align 8
  %76 = load i32, i32* %9, align 4
  %77 = sext i32 %76 to i64
  %78 = getelementptr inbounds [100 x double], [100 x double]* %15, i64 0, i64 %77
  %79 = load double, double* %78, align 8
  %80 = load double, double* %13, align 8
  %81 = fadd double %80, %79
  store double %81, double* %13, align 8
  br label %82

82:                                               ; preds = %59
  %83 = load i32, i32* %9, align 4
  %84 = add nsw i32 %83, 1
  store i32 %84, i32* %9, align 4
  br label %55

85:                                               ; preds = %55
  %86 = load double, double* %13, align 8
  %87 = load i32, i32* %6, align 4
  %88 = sitofp i32 %87 to double
  %89 = fdiv double %86, %88
  store double %89, double* %10, align 8
  %90 = load double, double* %10, align 8
  %91 = call double @sqrt(double %90) #3
  %92 = call i32 (i8*, ...) @printf(i8* getelementptr inbounds ([7 x i8], [7 x i8]* @.str.2, i64 0, i64 0), double %91)
  br label %93

93:                                               ; preds = %85
  %94 = load i32, i32* %8, align 4
  %95 = add nsw i32 %94, 1
  store i32 %95, i32* %8, align 4
  br label %17

96:                                               ; preds = %17
  ret i32 0
}

declare dso_local i32 @__isoc99_scanf(i8*, ...) #1

declare dso_local i32 @printf(i8*, ...) #1

; Function Attrs: nounwind
declare dso_local double @sqrt(double) #2


!llvm.module.flags = !{!0}
!llvm.ident = !{!1}

!0 = !{i32 1, !"wchar_size", i32 4}
!1 = !{!"clang version 10.0.0-4ubuntu1 "}
